; Function Attrs: nounwind uwtable
define range(i32 0, 2) i32 @uri_TESTING_ONLY_ParseIpFourW(ptr noundef %0) local_unnamed_addr #0 {
  %2 = alloca [4 x i8], align 1
  call void @llvm.lifetime.start.p0(i64 4, ptr nonnull %2) #7
  %3 = tail call i64 @wcslen(ptr noundef %0) #8
  %4 = getelementptr inbounds nuw i32, ptr %0, i64 %3
  %5 = call i32 @uriParseIpFourAddressW(ptr noundef nonnull %2, ptr noundef %0, ptr noundef %4) #7
  %6 = icmp eq i32 %5, 0
  %7 = zext i1 %6 to i32
  call void @llvm.lifetime.end.p0(i64 4, ptr nonnull %2) #7
  ret i32 %7
}